(dp0
I0
(S'cigarettes after sex'
p1
S'Affection'
p2
tp3
sI1
(g1
S'K.'
p4
tp5
sI2
(g1
S'Sweet'
p6
tp7
sI3
(g1
S"Nothing's Gonna Hurt You Baby"
p8
tp9
sI4
(g1
S'Apocalypse'
p10
tp11
sI5
(g1
S'Young & Dumb'
p12
tp13
sI6
(g1
S'Sunsetz'
p14
tp15
sI7
(g1
S'John Wayne'
p16
tp17
sI8
(g1
S'Opera House'
p18
tp19
sI9
(g1
S'Flash'
p20
tp21
sI10
(S'eric clapton'
p22
S'Tears in Heaven'
p23
tp24
sI11
(g22
S'Cocaine'
p25
tp26
sI12
(g22
S'Layla (Acoustic Live)'
p27
tp28
sI13
(g22
S'Wonderful Tonight'
p29
tp30
sI14
(g22
S'Change The World'
p31
tp32
sI15
(g22
S"Nobody Knows You When You're Down And Out (Acoustic Live)"
p33
tp34
sI16
(g22
S'Old Love'
p35
tp36
sI17
(g22
S"I'll be alright"
p37
tp38
sI18
(g22
S'Before You Accuse Me'
p39
tp40
sI19
(g22
S'Lay Down Sally'
p41
tp42
sI20
(S'damien rice'
p43
S'9 Crimes'
p44
tp45
sI21
(g43
S"The Blower's Daughter"
p46
tp47
sI22
(g43
S'Delicate'
p48
tp49
sI23
(g43
S'It Takes a Lot to Know a Man'
p50
tp51
sI24
(g43
S'Volcano'
p52
tp53
sI25
(g43
S'Cannonball'
p54
tp55
sI26
(g43
S'My Favourite Faded Fantasy'
p56
tp57
sI27
(g43
S'The Greatest Bastard'
p58
tp59
sI28
(g43
S"I Don't Want to Change You"
p60
tp61
sI29
(g43
S"Cheers Darlin'"
p62
tp63
sI30
(S'dire straits'
p64
S'Sultans of Swing'
p65
tp66
sI31
(g64
S'Romeo and Juliet'
p67
tp68
sI32
(g64
S'Money for Nothing'
p69
tp70
sI33
(g64
S'Brothers in Arms'
p71
tp72
sI34
(g64
S'Walk of Life'
p73
tp74
sI35
(g64
S'Telegraph Road'
p75
tp76
sI36
(g64
S'Tunnel Of Love'
p77
tp78
sI37
(g64
S'So Far Away'
p79
tp80
sI38
(g64
S"The Man's Too Strong"
p81
tp82
sI39
(g64
S'Lady Writer'
p83
tp84
sI40
(S'the black keys'
p85
S'Weight of Love'
p86
tp87
sI41
(g85
S'Little Black Submarines'
p88
tp89
sI42
(g85
S'Gotta Get Away'
p90
tp91
sI43
(g85
S'Gold on the Ceiling'
p92
tp93
sI44
(g85
S'Lonely Boy'
p94
tp95
sI45
(g85
S'Fever'
p96
tp97
sI46
(g85
S'Tighten Up'
p98
tp99
sI47
(g85
S'10 Lovers'
p100
tp101
sI48
(g85
S'The Baddest Man Alive'
p102
tp103
sI49
(g85
S'Turn Blue [Tracklist + Album Art]'
p104
tp105
sI50
(S'Eminem'
p106
S'Rap God'
p107
tp108
sI51
(g106
S'The Monster'
p109
tp110
sI52
(g106
S'Berzerk'
p111
tp112
sI53
(g106
S'Lose Yourself'
p113
tp114
sI54
(g106
S'Bad Guy'
p115
tp116
sI55
(g106
S'Survival'
p117
tp118
sI56
(g106
S'Headlights'
p119
tp120
sI57
(g106
S'Stan'
p121
tp122
sI58
(g106
S'Love Game'
p123
tp124
sI59
(g106
S'The Real Slim Shady'
p125
tp126
sI60
(S'Porcupine tree'
p127
S'The Sound of Muzak'
p128
tp129
sI61
(g127
S'Arriving Somewhere But Not Here'
p130
tp131
sI62
(g127
S'Lazarus'
p132
tp133
sI63
(g127
S'Fear of a Blank Planet'
p134
tp135
sI64
(g127
S'Anesthetize'
p136
tp137
sI65
(g127
S'Trains'
p138
tp139
sI66
(g127
S'The Start of Something Beautiful'
p140
tp141
sI67
(g127
S'Time Flies'
p142
tp143
sI68
(g127
S'Open Car'
p144
tp145
sI69
(g127
S'Way Out of Here'
p146
tp147
sI70
(S'Northlane'
p148
S'Leech'
p149
tp150
sI71
(g148
S'Obelisk'
p151
tp152
sI72
(g148
S'Citizen'
p153
tp154
sI73
(g148
S'Refuge'
p155
tp156
sI74
(g148
S'Paragon'
p157
tp158
sI75
(g148
S'Solar'
p159
tp160
sI76
(g148
S'Heartmachine'
p161
tp162
sI77
(g148
S'Colourwave'
p163
tp164
sI78
(g148
S'Zero-One'
p165
tp166
sI79
(g148
S'Ra'
p167
tp168
sI80
(S'incubus'
p169
S'Drive'
p170
tp171
sI81
(g169
S'Dig'
p172
tp173
sI82
(g169
S'Nimble Bastard'
p174
tp175
sI83
(g169
S'Pardon Me'
p176
tp177
sI84
(g169
S'Wish You Were Here'
p178
tp179
sI85
(g169
S'Absolution Calling'
p180
tp181
sI86
(g169
S'No Fun'
p182
tp183
sI87
(g169
S'Undefeated'
p184
tp185
sI88
(g169
S'Stellar'
p186
tp187
sI89
(g169
S'Trust Fall'
p188
tp189
sI90
(S'radiohead'
p190
S'Creep'
p191
tp192
sI91
(g190
S'Daydreaming'
p193
tp194
sI92
(g190
S'Burn the Witch'
p195
tp196
sI93
(g190
S'Identikit'
p197
tp198
sI94
(g190
S'Karma Police'
p199
tp200
sI95
(g190
S'Paranoid Android'
p201
tp202
sI96
(g190
S'Decks Dark'
p203
tp204
sI97
(g190
S'No Surprises'
p205
tp206
sI98
(g190
S'The Numbers'
p207
tp208
sI99
(g190
S'Ful Stop'
p209
tp210
s.