(dp0
I0
(S'linkin park'
p1
S'Breaking the Habit'
p2
tp3
sI1
(g1
S'Papercut'
p4
tp5
sI2
(g1
S'Somewhere I Belong'
p6
tp7
sI3
(g1
S'Invisible'
p8
tp9
sI4
(g1
S'Leave Out All the Rest'
p10
tp11
sI5
(g1
S"What I've Done"
p12
tp13
sI6
(g1
S'Faint'
p14
tp15
sI7
(g1
S'CASTLE OF GLASS'
p16
tp17
sI8
(g1
S'Bleed It Out'
p18
tp19
sI9
(g1
S'Sorry for Now'
p20
tp21
sI10
(S'evanescence'
p22
S'Haunted'
p23
tp24
sI11
(g22
S'My Heart Is Broken'
p25
tp26
sI12
(g22
S'Lost in Paradise'
p27
tp28
sI13
(g22
S'My Last Breath'
p29
tp30
sI14
(g22
S'My Immortal (Band Version)'
p31
tp32
sI15
(g22
S'Sweet Sacrifice'
p33
tp34
sI16
(g22
S'Imaginary'
p35
tp36
sI17
(g22
S'Taking Over Me'
p37
tp38
sI18
(g22
S'Breathe No More'
p39
tp40
sI19
(S'alice in chains'
p41
S'Got Me Wrong'
p42
tp43
sI20
(g41
S'Dirt'
p44
tp45
sI21
(g41
S'Heaven Beside You'
p46
tp47
sI22
(g41
S"Don't Follow"
p48
tp49
sI23
(g41
S'God Am'
p50
tp51
sI24
(g41
S'Right Turn'
p52
tp53
sI25
(g41
S'Rain When I Die'
p54
tp55
sI26
(g41
S'Angry Chair'
p56
tp57
sI27
(g41
S'Frogs'
p58
tp59
sI28
(g41
S'Rotten Apple'
p60
tp61
sI29
(S'metallica'
p62
S'Wherever I May Roam'
p63
tp64
sI30
(g62
S'Sad but True'
p65
tp66
sI31
(g62
S'Creeping Death'
p67
tp68
sI32
(g62
S'Ride the Lightning'
p69
tp70
sI33
(g62
S'The Unforgiven II'
p71
tp72
sI34
(g62
S'Welcome Home (Sanitarium)'
p73
tp74
sI35
(g62
S'Battery'
p75
tp76
sI36
(g62
S'Spit Out the Bone'
p77
tp78
sI37
(S'audioslave'
p79
S'Gasoline'
p80
tp81
sI38
(g79
S'Hypnotize'
p82
tp83
sI39
(g79
S'#1 Zero'
p84
tp85
sI40
(g79
S'Your Time Has Come'
p86
tp87
sI41
(g79
S'Exploder'
p88
tp89
sI42
(g79
S"Heaven's Dead"
p90
tp91
sI43
(g79
S'Dandelion'
p92
tp93
sI44
(g79
S'What You Are'
p94
tp95
sI45
(g79
S'Out Of Exile'
p96
tp97
sI46
(g79
S'Getaway Car'
p98
tp99
sI47
(S'incubus'
p100
S'Nice To Know You'
p101
tp102
sI48
(g100
S'Warning'
p103
tp104
sI49
(g100
S'Anna Molly'
p105
tp106
sI50
(g100
S'Talk Shows On Mute'
p107
tp108
sI51
(g100
S'State of the Art'
p109
tp110
sI52
(g100
S'I Miss You'
p111
tp112
sI53
(g100
S'Megalomaniac'
p113
tp114
sI54
(g100
S'Glitterbomb'
p115
tp116
sI55
(g100
S'Love Hurts'
p117
tp118
sI56
(g100
S'Make Out Party'
p119
tp120
sI57
(S'opeth'
p121
S'Spring MCMLXXIV'
p122
tp123
sI58
(g121
S'Strange Brew'
p124
tp125
sI59
(g121
S'Bleak'
p126
tp127
sI60
(g121
S'Windowpane'
p128
tp129
sI61
(g121
S'Burden'
p130
tp131
sI62
(g121
S'Face of Melinda'
p132
tp133
sI63
(g121
S'The Drapery Falls'
p134
tp135
sI64
(g121
S'The Moor'
p136
tp137
sI65
(S'radiohead'
p138
S'True Love Waits'
p139
tp140
sI66
(g138
S'Glass Eyes'
p141
tp142
sI67
(g138
S'Present Tense'
p143
tp144
sI68
(g138
S'Let Down'
p145
tp146
sI69
(g138
S'Everything in Its Right Place'
p147
tp148
sI70
(g138
S'I Promise'
p149
tp150
sI71
(g138
S'Desert Island Disk'
p151
tp152
sI72
(g138
S'Fake Plastic Trees'
p153
tp154
sI73
(g138
S'Fitter Happier'
p155
tp156
sI74
(S'led zeppelin'
p157
S'Ten Years Gone'
p158
tp159
sI75
(g157
S'Ramble On'
p160
tp161
sI76
(g157
S"Since I've Been Loving You"
p162
tp163
sI77
(g157
S'Fool In The Rain'
p164
tp165
sI78
(g157
S'The Battle of Evermore'
p166
tp167
sI79
(g157
S'No Quarter'
p168
tp169
sI80
(g157
S'Good Times Bad Times'
p170
tp171
sI81
(g157
S'In My Time of Dying'
p172
tp173
sI82
(S'porcupine tree'
p174
S'Shesmovedon'
p175
tp176
sI83
(g174
S'Mellotron Scratch'
p177
tp178
sI84
(g174
S'Pure Narcotic'
p179
tp180
sI85
(g174
S'Sentimental'
p181
tp182
sI86
(g174
S'Sleep Together'
p183
tp184
sI87
(g174
S'Shallow'
p185
tp186
sI88
(g174
S'Halo'
p187
tp188
sI89
(g174
S'Normal'
p189
tp190
sI90
(g174
S'Deadwing'
p191
tp192
sI91
(g174
S'Glass Arm Shattering'
p193
tp194
sI92
(S'karnivool'
p195
S'Shutterspeed'
p196
tp197
sI93
(g195
S'Goliath'
p198
tp199
sI94
(g195
S'Roquefort'
p200
tp201
sI95
(g195
S'Nachash'
p202
tp203
sI96
(g195
S'The Refusal'
p204
tp205
sI97
(g195
S'Headcase'
p206
tp207
sI98
(g195
S'Om'
p208
tp209
sI99
(g195
S'Set Fire To The Hive'
p210
tp211
sI100
(g195
S'Deadman'
p212
tp213
sI101
(S'oasis'
p214
S"She's Electric"
p215
tp216
sI102
(g214
S'Cast No Shadow'
p217
tp218
sI103
(g214
S'Cigarettes & Alcohol'
p219
tp220
sI104
(g214
S"Rock 'n' Roll Star"
p221
tp222
sI105
(g214
S'\xe3\x82\xad\xe3\x83\xbb\xe3\x82\xad\xe3\x83\xbb\xe3\x83\x81\xe3\x83\xbb\xe3\x82\xac\xe3\x83\xbb\xe3\x82\xa4 (KiKiChiGaI)'
p223
tp224
sI106
(g214
S'The Importance of Being Idle'
p225
tp226
sI107
(g214
S'Morning Glory'
p227
tp228
sI108
(g214
S'Roll with It'
p229
tp230
sI109
(g214
S"Don't Go Away"
p231
tp232
sI110
(g214
S'Some Might Say'
p233
tp234
sI111
(S'green day'
p235
S"She's a Rebel"
p236
tp237
sI112
(g235
S'Kill the DJ'
p238
tp239
sI113
(g235
S'21st Century Breakdown'
p240
tp241
sI114
(g235
S'Give Me Novacaine'
p242
tp243
sI115
(g235
S'Welcome to Paradise'
p244
tp245
sI116
(g235
S'St. Jimmy'
p246
tp247
sI117
(g235
S'When I Come Around'
p248
tp249
sI118
(g235
S'Brain Stew'
p250
tp251
sI119
(g235
S'Letterbomb'
p252
tp253
sI120
(S'nirvana'
p254
S'Dumb'
p255
tp256
sI121
(g254
S'The Man Who Sold The World'
p257
tp258
sI122
(g254
S'Drain You'
p259
tp260
sI123
(g254
S'Pennyroyal Tea'
p261
tp262
sI124
(g254
S'Lounge Act'
p263
tp264
sI125
(g254
S'Territorial Pissings'
p265
tp266
sI126
(g254
S'About a Girl'
p267
tp268
sI127
(g254
S'On a Plain'
p269
tp270
sI128
(g254
S'Breed'
p271
tp272
sI129
(g254
S'Nirvana'
p273
tp274
sI130
(S'black sabbath'
p275
S'Warning'
p276
tp277
sI131
(g275
S'Hand of Doom'
p278
tp279
sI132
(g275
S'Solitude'
p280
tp281
sI133
(g275
S'Behind the Wall of Sleep'
p282
tp283
sI134
(g275
S'Changes'
p284
tp285
sI135
(g275
S'Electric Funeral'
p286
tp287
sI136
(g275
S'Heaven And Hell'
p288
tp289
sI137
(g275
S'Into the Void'
p290
tp291
sI138
(g275
S'After Forever'
p292
tp293
sI139
(g275
S'Snowblind'
p294
tp295
sI140
(S'eminem'
p296
S'Mockingbird'
p297
tp298
sI141
(g296
S'Without Me'
p299
tp300
sI142
(g296
S'8 Mile: B-Rabbit vs Papa Doc'
p301
tp302
sI143
(g296
S'Evil Twin'
p303
tp304
sI144
(g296
S'Stronger Than I Was'
p305
tp306
sI145
(g296
S'Not Afraid'
p307
tp308
sI146
(g296
S'Guts Over Fear'
p309
tp310
sI147
(g296
S'Legacy'
p311
tp312
sI148
(g296
S'No Love'
p313
tp314
sI149
(g296
S"'Till I Collapse"
p315
tp316
sI150
(S'britney spears'
p317
S'Everytime'
p318
tp319
sI151
(g317
S'Oops!... I Did It Again'
p320
tp321
sI152
(g317
S'If U Seek Amy'
p322
tp323
sI153
(g317
S'Just Luv Me'
p324
tp325
sI154
(g317
S"Til It's Gone"
p326
tp327
sI155
(g317
S'Do You Wanna Come Over?'
p328
tp329
sI156
(g317
S'Change Your Mind (No Seas Cort\xc3\xa9s)'
p330
tp331
sI157
(g317
S'Liar'
p332
tp333
sI158
(g317
S'Invitation'
p334
tp335
sI159
(g317
S'Till the World Ends (The Femme Fatale Remix)'
p336
tp337
sI160
(S'jay z'
p338
S'Picasso Baby'
p339
tp340
sI161
(g338
S'Who Gon Stop Me'
p341
tp342
sI162
(g338
S'Renegade'
p343
tp344
sI163
(g338
S'Otis'
p345
tp346
sI164
(g338
S'99 Problems'
p347
tp348
sI165
(g338
S'Takeover'
p349
tp350
sI166
(g338
S'Murder to Excellence'
p351
tp352
sI167
(g338
S'Empire State of Mind'
p353
tp354
sI168
(g338
S'Heaven'
p355
tp356
sI169
(g338
S'Open Letter'
p357
tp358
sI170
(S'pink floyd'
p359
S'Louder than Words'
p360
tp361
sI171
(g359
S'Mother'
p362
tp363
sI172
(g359
S'Hey You'
p364
tp365
sI173
(g359
S'Dogs'
p366
tp367
sI174
(g359
S'Have a Cigar'
p368
tp369
sI175
(g359
S'In the Flesh?'
p370
tp371
sI176
(g359
S'The Great Gig in the Sky'
p372
tp373
sI177
(g359
S'Speak to Me'
p374
tp375
sI178
(S'nine inch nails'
p376
S'March of the Pigs'
p377
tp378
sI179
(g376
S'Heresy'
p379
tp380
sI180
(g376
S'Ruiner'
p381
tp382
sI181
(g376
S'All Time Low'
p383
tp384
sI182
(g376
S'Reptile'
p385
tp386
sI183
(g376
S'Big Man with a Gun'
p387
tp388
sI184
(g376
S'The Idea of You'
p389
tp390
sI185
(g376
S'Head Like a Hole'
p391
tp392
sI186
(g376
S'Piggy'
p393
tp394
sI187
(g376
S'In Two'
p395
tp396
s.